; ModuleID = '20/765.c'
source_filename = "20/765.c"
target datalayout = "e-m:e-p270:32:32-p271:32:32-p272:64:64-i64:64-f80:128-n8:16:32:64-S128"
target triple = "x86_64-pc-linux-gnu"

@.str = private unnamed_addr constant [6 x i8] c"%s %s\00", align 1
@.str.1 = private unnamed_addr constant [3 x i8] c"%c\00", align 1
@.str.2 = private unnamed_addr constant [2 x i8] c"\0A\00", align 1

; Function Attrs: noinline nounwind uwtable
define dso_local void @main() #0 {
  %1 = alloca [100 x i8], align 16
  %2 = alloca [100 x i8], align 16
  %3 = alloca [100 x i8], align 16
  %4 = alloca i32, align 4
  %5 = alloca i32, align 4
  %6 = alloca i32, align 4
  br label %7

7:                                                ; preds = %108, %0
  %8 = getelementptr inbounds [100 x i8], [100 x i8]* %1, i64 0, i64 0
  %9 = getelementptr inbounds [100 x i8], [100 x i8]* %2, i64 0, i64 0
  %10 = call i32 (i8*, ...) @__isoc99_scanf(i8* getelementptr inbounds ([6 x i8], [6 x i8]* @.str, i64 0, i64 0), i8* %8, i8* %9)
  %11 = icmp ne i32 %10, -1
  br i1 %11, label %12, label %110

12:                                               ; preds = %7
  %13 = getelementptr inbounds [100 x i8], [100 x i8]* %1, i64 0, i64 0
  %14 = call i64 @strlen(i8* %13) #3
  %15 = trunc i64 %14 to i32
  store i32 %15, i32* %4, align 4
  store i32 0, i32* %5, align 4
  store i32 1, i32* %6, align 4
  br label %16

16:                                               ; preds = %35, %12
  %17 = load i32, i32* %6, align 4
  %18 = load i32, i32* %4, align 4
  %19 = icmp slt i32 %17, %18
  br i1 %19, label %20, label %38

20:                                               ; preds = %16
  %21 = load i32, i32* %6, align 4
  %22 = sext i32 %21 to i64
  %23 = getelementptr inbounds [100 x i8], [100 x i8]* %1, i64 0, i64 %22
  %24 = load i8, i8* %23, align 1
  %25 = sext i8 %24 to i32
  %26 = load i32, i32* %5, align 4
  %27 = sext i32 %26 to i64
  %28 = getelementptr inbounds [100 x i8], [100 x i8]* %1, i64 0, i64 %27
  %29 = load i8, i8* %28, align 1
  %30 = sext i8 %29 to i32
  %31 = icmp sgt i32 %25, %30
  br i1 %31, label %32, label %34

32:                                               ; preds = %20
  %33 = load i32, i32* %6, align 4
  store i32 %33, i32* %5, align 4
  br label %34

34:                                               ; preds = %32, %20
  br label %35

35:                                               ; preds = %34
  %36 = load i32, i32* %6, align 4
  %37 = add nsw i32 %36, 1
  store i32 %37, i32* %6, align 4
  br label %16

38:                                               ; preds = %16
  store i32 0, i32* %6, align 4
  br label %39

39:                                               ; preds = %51, %38
  %40 = load i32, i32* %6, align 4
  %41 = load i32, i32* %5, align 4
  %42 = icmp sle i32 %40, %41
  br i1 %42, label %43, label %54

43:                                               ; preds = %39
  %44 = load i32, i32* %6, align 4
  %45 = sext i32 %44 to i64
  %46 = getelementptr inbounds [100 x i8], [100 x i8]* %1, i64 0, i64 %45
  %47 = load i8, i8* %46, align 1
  %48 = load i32, i32* %6, align 4
  %49 = sext i32 %48 to i64
  %50 = getelementptr inbounds [100 x i8], [100 x i8]* %3, i64 0, i64 %49
  store i8 %47, i8* %50, align 1
  br label %51

51:                                               ; preds = %43
  %52 = load i32, i32* %6, align 4
  %53 = add nsw i32 %52, 1
  store i32 %53, i32* %6, align 4
  br label %39

54:                                               ; preds = %39
  %55 = getelementptr inbounds [100 x i8], [100 x i8]* %2, i64 0, i64 0
  %56 = load i8, i8* %55, align 16
  %57 = load i32, i32* %5, align 4
  %58 = add nsw i32 %57, 1
  %59 = sext i32 %58 to i64
  %60 = getelementptr inbounds [100 x i8], [100 x i8]* %3, i64 0, i64 %59
  store i8 %56, i8* %60, align 1
  %61 = getelementptr inbounds [100 x i8], [100 x i8]* %2, i64 0, i64 1
  %62 = load i8, i8* %61, align 1
  %63 = load i32, i32* %5, align 4
  %64 = add nsw i32 %63, 2
  %65 = sext i32 %64 to i64
  %66 = getelementptr inbounds [100 x i8], [100 x i8]* %3, i64 0, i64 %65
  store i8 %62, i8* %66, align 1
  %67 = getelementptr inbounds [100 x i8], [100 x i8]* %2, i64 0, i64 2
  %68 = load i8, i8* %67, align 2
  %69 = load i32, i32* %5, align 4
  %70 = add nsw i32 %69, 3
  %71 = sext i32 %70 to i64
  %72 = getelementptr inbounds [100 x i8], [100 x i8]* %3, i64 0, i64 %71
  store i8 %68, i8* %72, align 1
  %73 = load i32, i32* %5, align 4
  %74 = add nsw i32 %73, 4
  store i32 %74, i32* %6, align 4
  br label %75

75:                                               ; preds = %89, %54
  %76 = load i32, i32* %6, align 4
  %77 = load i32, i32* %4, align 4
  %78 = add nsw i32 %77, 3
  %79 = icmp slt i32 %76, %78
  br i1 %79, label %80, label %92

80:                                               ; preds = %75
  %81 = load i32, i32* %6, align 4
  %82 = sub nsw i32 %81, 3
  %83 = sext i32 %82 to i64
  %84 = getelementptr inbounds [100 x i8], [100 x i8]* %1, i64 0, i64 %83
  %85 = load i8, i8* %84, align 1
  %86 = load i32, i32* %6, align 4
  %87 = sext i32 %86 to i64
  %88 = getelementptr inbounds [100 x i8], [100 x i8]* %3, i64 0, i64 %87
  store i8 %85, i8* %88, align 1
  br label %89

89:                                               ; preds = %80
  %90 = load i32, i32* %6, align 4
  %91 = add nsw i32 %90, 1
  store i32 %91, i32* %6, align 4
  br label %75

92:                                               ; preds = %75
  store i32 0, i32* %6, align 4
  br label %93

93:                                               ; preds = %105, %92
  %94 = load i32, i32* %6, align 4
  %95 = load i32, i32* %4, align 4
  %96 = add nsw i32 %95, 3
  %97 = icmp slt i32 %94, %96
  br i1 %97, label %98, label %108

98:                                               ; preds = %93
  %99 = load i32, i32* %6, align 4
  %100 = sext i32 %99 to i64
  %101 = getelementptr inbounds [100 x i8], [100 x i8]* %3, i64 0, i64 %100
  %102 = load i8, i8* %101, align 1
  %103 = sext i8 %102 to i32
  %104 = call i32 (i8*, ...) @printf(i8* getelementptr inbounds ([3 x i8], [3 x i8]* @.str.1, i64 0, i64 0), i32 %103)
  br label %105

105:                                              ; preds = %98
  %106 = load i32, i32* %6, align 4
  %107 = add nsw i32 %106, 1
  store i32 %107, i32* %6, align 4
  br label %93

108:                                              ; preds = %93
  %109 = call i32 (i8*, ...) @printf(i8* getelementptr inbounds ([2 x i8], [2 x i8]* @.str.2, i64 0, i64 0))
  br label %7

110:                                              ; preds = %7
  ret void
}

declare dso_local i32 @__isoc99_scanf(i8*, ...) #1

; Function Attrs: nounwind readonly
declare dso_local i64 @strlen(i8*) #2

declare dso_local i32 @printf(i8*, ...) #1


!llvm.module.flags = !{!0}
!llvm.ident = !{!1}

!0 = !{i32 1, !"wchar_size", i32 4}
!1 = !{!"clang version 10.0.0-4ubuntu1 "}
